target datalayout = "e-m:e-p270:32:32-p271:32:32-p272:64:64-i64:64-i128:128-f80:128-n8:16:32:64-S128"
target triple = "x86_64-pc-linux-gnu"

%struct.mbedtls_ssl_context = type { ptr, i32, i32, i32, i32, i32, ptr, ptr, ptr, ptr, ptr, ptr, ptr, ptr, ptr, ptr, ptr, ptr, ptr, ptr, ptr, ptr, ptr, ptr, ptr, ptr, ptr, ptr, ptr, ptr, ptr, ptr, ptr, i32, i64, i64, i16, i64, i64, i64, i64, i32, i32, i8, i8, i32, i8, ptr, ptr, ptr, ptr, ptr, ptr, ptr, i32, i64, i64, [8 x i8], i16, ptr, ptr, ptr, i64, i32, i64, [12 x i8], [12 x i8], [32 x i8], i8, i8, ptr, ptr, %union.mbedtls_ssl_user_data_t }
%union.mbedtls_ssl_user_data_t = type { i64 }
%struct.mbedtls_ssl_config = type { i32, i32, i8, i8, i8, i8, i8, i8, i8, i8, i8, i8, i16, i8, i8, i8, ptr, i32, ptr, ptr, ptr, ptr, ptr, ptr, ptr, ptr, ptr, ptr, ptr, ptr, ptr, ptr, ptr, ptr, ptr, ptr, ptr, i64, ptr, ptr, ptr, ptr, ptr, ptr, ptr, ptr, %struct.mbedtls_mpi, %struct.mbedtls_mpi, ptr, i64, ptr, i64, ptr, i32, i32, i32, i32, [8 x i8], i32, i32, %union.mbedtls_ssl_user_data_t, ptr, ptr }
%struct.mbedtls_mpi = type { ptr, i16, i16 }

; Function Attrs: inlinehint nounwind uwtable
define internal i64 @ssl_load_six_bytes(ptr noundef %0) #4 {
  %2 = alloca ptr, align 8
  store ptr %0, ptr %2, align 8, !tbaa !21
  %3 = load ptr, ptr %2, align 8, !tbaa !21
  %4 = getelementptr inbounds i8, ptr %3, i64 0
  %5 = load i8, ptr %4, align 1, !tbaa !38
  %6 = zext i8 %5 to i64
  %7 = shl i64 %6, 40
  %8 = load ptr, ptr %2, align 8, !tbaa !21
  %9 = getelementptr inbounds i8, ptr %8, i64 1
  %10 = load i8, ptr %9, align 1, !tbaa !38
  %11 = zext i8 %10 to i64
  %12 = shl i64 %11, 32
  %13 = or i64 %7, %12
  %14 = load ptr, ptr %2, align 8, !tbaa !21
  %15 = getelementptr inbounds i8, ptr %14, i64 2
  %16 = load i8, ptr %15, align 1, !tbaa !38
  %17 = zext i8 %16 to i64
  %18 = shl i64 %17, 24
  %19 = or i64 %13, %18
  %20 = load ptr, ptr %2, align 8, !tbaa !21
  %21 = getelementptr inbounds i8, ptr %20, i64 3
  %22 = load i8, ptr %21, align 1, !tbaa !38
  %23 = zext i8 %22 to i64
  %24 = shl i64 %23, 16
  %25 = or i64 %19, %24
  %26 = load ptr, ptr %2, align 8, !tbaa !21
  %27 = getelementptr inbounds i8, ptr %26, i64 4
  %28 = load i8, ptr %27, align 1, !tbaa !38
  %29 = zext i8 %28 to i64
  %30 = shl i64 %29, 8
  %31 = or i64 %25, %30
  %32 = load ptr, ptr %2, align 8, !tbaa !21
  %33 = getelementptr inbounds i8, ptr %32, i64 5
  %34 = load i8, ptr %33, align 1, !tbaa !38
  %35 = zext i8 %34 to i64
  %36 = or i64 %31, %35
  ret i64 %36
}

; Function Attrs: nounwind uwtable
define hidden void @mbedtls_ssl_dtls_replay_update(ptr noundef %0) #0 {
  %2 = alloca ptr, align 8
  %3 = alloca i64, align 8
  %4 = alloca i32, align 4
  %5 = alloca i64, align 8
  %6 = alloca i64, align 8
  store ptr %0, ptr %2, align 8, !tbaa !3
  call void @llvm.lifetime.start.p0(i64 8, ptr %3) #11
  %7 = load ptr, ptr %2, align 8, !tbaa !3
  %8 = getelementptr inbounds nuw %struct.mbedtls_ssl_context, ptr %7, i32 0, i32 26
  %9 = load ptr, ptr %8, align 8, !tbaa !44
  %10 = getelementptr inbounds i8, ptr %9, i64 2
  %11 = call i64 @ssl_load_six_bytes(ptr noundef %10)
  store i64 %11, ptr %3, align 8, !tbaa !22
  %12 = load ptr, ptr %2, align 8, !tbaa !3
  %13 = getelementptr inbounds nuw %struct.mbedtls_ssl_context, ptr %12, i32 0, i32 0
  %14 = load ptr, ptr %13, align 8, !tbaa !23
  %15 = getelementptr inbounds nuw %struct.mbedtls_ssl_config, ptr %14, i32 0, i32 9
  %16 = load i8, ptr %15, align 1, !tbaa !155
  %17 = zext i8 %16 to i32
  %18 = icmp eq i32 %17, 0
  br i1 %18, label %19, label %20

19:                                               ; preds = %1
  store i32 1, ptr %4, align 4
  br label %68

20:                                               ; preds = %1
  %21 = load i64, ptr %3, align 8, !tbaa !22
  %22 = load ptr, ptr %2, align 8, !tbaa !3
  %23 = getelementptr inbounds nuw %struct.mbedtls_ssl_context, ptr %22, i32 0, i32 38
  %24 = load i64, ptr %23, align 8, !tbaa !153
  %25 = icmp ugt i64 %21, %24
  br i1 %25, label %26, label %51

26:                                               ; preds = %20
  call void @llvm.lifetime.start.p0(i64 8, ptr %5) #11
  %27 = load i64, ptr %3, align 8, !tbaa !22
  %28 = load ptr, ptr %2, align 8, !tbaa !3
  %29 = getelementptr inbounds nuw %struct.mbedtls_ssl_context, ptr %28, i32 0, i32 38
  %30 = load i64, ptr %29, align 8, !tbaa !153
  %31 = sub i64 %27, %30
  store i64 %31, ptr %5, align 8, !tbaa !22
  %32 = load i64, ptr %5, align 8, !tbaa !22
  %33 = icmp uge i64 %32, 64
  br i1 %33, label %34, label %37

34:                                               ; preds = %26
  %35 = load ptr, ptr %2, align 8, !tbaa !3
  %36 = getelementptr inbounds nuw %struct.mbedtls_ssl_context, ptr %35, i32 0, i32 39
  store i64 1, ptr %36, align 8, !tbaa !154
  br label %47

37:                                               ; preds = %26
  %38 = load i64, ptr %5, align 8, !tbaa !22
  %39 = load ptr, ptr %2, align 8, !tbaa !3
  %40 = getelementptr inbounds nuw %struct.mbedtls_ssl_context, ptr %39, i32 0, i32 39
  %41 = load i64, ptr %40, align 8, !tbaa !154
  %42 = shl i64 %41, %38
  store i64 %42, ptr %40, align 8, !tbaa !154
  %43 = load ptr, ptr %2, align 8, !tbaa !3
  %44 = getelementptr inbounds nuw %struct.mbedtls_ssl_context, ptr %43, i32 0, i32 39
  %45 = load i64, ptr %44, align 8, !tbaa !154
  %46 = or i64 %45, 1
  store i64 %46, ptr %44, align 8, !tbaa !154
  br label %47

47:                                               ; preds = %37, %34
  %48 = load i64, ptr %3, align 8, !tbaa !22
  %49 = load ptr, ptr %2, align 8, !tbaa !3
  %50 = getelementptr inbounds nuw %struct.mbedtls_ssl_context, ptr %49, i32 0, i32 38
  store i64 %48, ptr %50, align 8, !tbaa !153
  call void @llvm.lifetime.end.p0(i64 8, ptr %5) #11
  br label %67

51:                                               ; preds = %20
  call void @llvm.lifetime.start.p0(i64 8, ptr %6) #11
  %52 = load ptr, ptr %2, align 8, !tbaa !3
  %53 = getelementptr inbounds nuw %struct.mbedtls_ssl_context, ptr %52, i32 0, i32 38
  %54 = load i64, ptr %53, align 8, !tbaa !153
  %55 = load i64, ptr %3, align 8, !tbaa !22
  %56 = sub i64 %54, %55
  store i64 %56, ptr %6, align 8, !tbaa !22
  %57 = load i64, ptr %6, align 8, !tbaa !22
  %58 = icmp ult i64 %57, 64
  br i1 %58, label %59, label %66

59:                                               ; preds = %51
  %60 = load i64, ptr %6, align 8, !tbaa !22
  %61 = shl i64 1, %60
  %62 = load ptr, ptr %2, align 8, !tbaa !3
  %63 = getelementptr inbounds nuw %struct.mbedtls_ssl_context, ptr %62, i32 0, i32 39
  %64 = load i64, ptr %63, align 8, !tbaa !154
  %65 = or i64 %64, %61
  store i64 %65, ptr %63, align 8, !tbaa !154
  br label %66

66:                                               ; preds = %59, %51
  call void @llvm.lifetime.end.p0(i64 8, ptr %6) #11
  br label %67

67:                                               ; preds = %66, %47
  store i32 0, ptr %4, align 4
  br label %68

68:                                               ; preds = %67, %19
  call void @llvm.lifetime.end.p0(i64 8, ptr %3) #11
  %69 = load i32, ptr %4, align 4
  switch i32 %69, label %71 [
    i32 0, label %70
    i32 1, label %70
  ]

70:                                               ; preds = %68, %68
  ret void

71:                                               ; preds = %68
  unreachable
}