; Function Attrs: mustprogress nofree norecurse nosync nounwind willreturn memory(read, argmem: readwrite, inaccessiblemem: none) uwtable
define hidden void @mbedtls_ssl_dtls_replay_update(ptr noundef captures(none) %0) local_unnamed_addr #7 {
  %2 = getelementptr inbounds nuw i8, ptr %0, i64 192
  %3 = load ptr, ptr %2, align 8, !tbaa !38
  %4 = getelementptr inbounds nuw i8, ptr %3, i64 2
  %5 = load i8, ptr %4, align 1, !tbaa !32
  %6 = zext i8 %5 to i64
  %7 = shl nuw nsw i64 %6, 40
  %8 = getelementptr inbounds nuw i8, ptr %3, i64 3
  %9 = load i8, ptr %8, align 1, !tbaa !32
  %10 = zext i8 %9 to i64
  %11 = shl nuw nsw i64 %10, 32
  %12 = or disjoint i64 %11, %7
  %13 = getelementptr inbounds nuw i8, ptr %3, i64 4
  %14 = load i8, ptr %13, align 1, !tbaa !32
  %15 = zext i8 %14 to i64
  %16 = shl nuw nsw i64 %15, 24
  %17 = or disjoint i64 %12, %16
  %18 = getelementptr inbounds nuw i8, ptr %3, i64 5
  %19 = load i8, ptr %18, align 1, !tbaa !32
  %20 = zext i8 %19 to i64
  %21 = shl nuw nsw i64 %20, 16
  %22 = or disjoint i64 %17, %21
  %23 = getelementptr inbounds nuw i8, ptr %3, i64 6
  %24 = load i8, ptr %23, align 1, !tbaa !32
  %25 = zext i8 %24 to i64
  %26 = shl nuw nsw i64 %25, 8
  %27 = or disjoint i64 %22, %26
  %28 = getelementptr inbounds nuw i8, ptr %3, i64 7
  %29 = load i8, ptr %28, align 1, !tbaa !32
  %30 = zext i8 %29 to i64
  %31 = or disjoint i64 %27, %30
  %32 = load ptr, ptr %0, align 8, !tbaa !18
  %33 = getelementptr inbounds nuw i8, ptr %32, i64 15
  %34 = load i8, ptr %33, align 1, !tbaa !144
  %35 = icmp eq i8 %34, 0
  br i1 %35, label %57, label %36

36:                                               ; preds = %1
  %37 = getelementptr inbounds nuw i8, ptr %0, i64 288
  %38 = load i64, ptr %37, align 8, !tbaa !145
  %39 = icmp ugt i64 %31, %38
  br i1 %39, label %40, label %49

40:                                               ; preds = %36
  %41 = sub nuw nsw i64 %31, %38
  %42 = icmp samesign ugt i64 %41, 63
  %43 = getelementptr inbounds nuw i8, ptr %0, i64 296
  br i1 %42, label %48, label %44

44:                                               ; preds = %40
  %45 = load i64, ptr %43, align 8, !tbaa !146
  %46 = shl i64 %45, %41
  %47 = or i64 %46, 1
  br label %48

48:                                               ; preds = %40, %44
  %.sink = phi i64 [ %47, %44 ], [ 1, %40 ]
  store i64 %.sink, ptr %43, align 8, !tbaa !146
  store i64 %31, ptr %37, align 8, !tbaa !145
  br label %57

49:                                               ; preds = %36
  %50 = sub nuw i64 %38, %31
  %51 = icmp ult i64 %50, 64
  br i1 %51, label %52, label %57

52:                                               ; preds = %49
  %53 = shl nuw i64 1, %50
  %54 = getelementptr inbounds nuw i8, ptr %0, i64 296
  %55 = load i64, ptr %54, align 8, !tbaa !146
  %56 = or i64 %55, %53
  store i64 %56, ptr %54, align 8, !tbaa !146
  br label %57

57:                                               ; preds = %48, %52, %49, %1
  ret void
}